target datalayout = "e-m:e-p270:32:32-p271:32:32-p272:64:64-i64:64-i128:128-f80:128-n8:16:32:64-S128"
target triple = "x86_64-pc-linux-gnu"

%struct.H5O_msg_class_t = type { i32, ptr, i64, i32, ptr, ptr, ptr, ptr, ptr, ptr, ptr, ptr, ptr, ptr, ptr, ptr, ptr, ptr, ptr, ptr }
%struct.H5O_t = type { %struct.H5C_cache_entry_t, i64, i64, i8, i64, i8, i32, i8, i8, i64, i64, i64, i64, i32, i32, i64, i64, ptr, i64, i64, i64, i64, ptr, i8, ptr }
%struct.H5C_cache_entry_t = type { ptr, i64, i64, ptr, i8, ptr, i8, i8, i8, i8, i32, i8, i8, i8, i8, i8, i32, ptr, i32, i32, i32, i32, i32, i8, i8, ptr, ptr, ptr, ptr, ptr, ptr, i8, i32, i8, i64, ptr, i64, i64, i32, i8, i32, i32, i8, ptr, ptr, ptr }
%struct.H5O_mesg_t = type { ptr, i8, i8, i32, i32, ptr, ptr, i64 }

@H5O_init_g = external global i8, align 1
@H5_libterm_g = external global i8, align 1
@.str = private unnamed_addr constant [104 x i8] c"generated/home/dtcxzyw/WorkSpace/Projects/compilers/llvm-opt-benchmark/bench/hdf5/hdf5/src/H5Omessage.c\00", align 1
@H5E_CANTINIT_g = external global i64, align 8
@H5E_OHDR_g = external global i64, align 8
@H5E_CANTPROTECT_g = external global i64, align 8
@H5E_CANTUNPROTECT_g = external global i64, align 8
@H5E_CANTUPDATE_g = external global i64, align 8
@.str.30 = private unnamed_addr constant [32 x i8] c"unable to update time on object\00", align 1
@__func__.H5O__msg_reset_real = private unnamed_addr constant [20 x i8] c"H5O__msg_reset_real\00", align 1
@H5E_CANTRELEASE_g = external global i64, align 8
@.str.47 = private unnamed_addr constant [20 x i8] c"reset method failed\00", align 1
@__func__.H5O__copy_mesg = private unnamed_addr constant [15 x i8] c"H5O__copy_mesg\00", align 1
@.str.50 = private unnamed_addr constant [38 x i8] c"unable to protect object header chunk\00", align 1
@.str.51 = private unnamed_addr constant [40 x i8] c"unable to copy message to object header\00", align 1
@.str.52 = private unnamed_addr constant [38 x i8] c"unable to release object header chunk\00", align 1

; Function Attrs: nounwind uwtable
define internal i32 @H5O__msg_reset_real(ptr noundef %0, ptr noundef %1) #0 {
  %3 = alloca ptr, align 8
  %4 = alloca ptr, align 8
  %5 = alloca i32, align 4
  %6 = alloca i8, align 1
  store ptr %0, ptr %3, align 8, !tbaa !23
  store ptr %1, ptr %4, align 8, !tbaa !10
  call void @llvm.lifetime.start.p0(i64 4, ptr %5) #5
  store i32 0, ptr %5, align 4, !tbaa !8
  call void @llvm.lifetime.start.p0(i64 1, ptr %6) #5
  store i8 0, ptr %6, align 1, !tbaa !13
  %7 = load i8, ptr @H5O_init_g, align 1, !tbaa !13, !range !15, !noundef !16
  %8 = trunc i8 %7 to i1
  br i1 %8, label %13, label %9

9:                                                ; preds = %2
  %10 = load i8, ptr @H5_libterm_g, align 1, !tbaa !13, !range !15, !noundef !16
  %11 = trunc i8 %10 to i1
  %12 = xor i1 %11, true
  br label %13

13:                                               ; preds = %9, %2
  %14 = phi i1 [ true, %2 ], [ %12, %9 ]
  %15 = xor i1 %14, true
  %16 = xor i1 %15, true
  %17 = zext i1 %16 to i32
  %18 = sext i32 %17 to i64
  %19 = call i64 @llvm.expect.i64(i64 %18, i64 1)
  %20 = icmp ne i64 %19, 0
  br i1 %20, label %21, label %64

21:                                               ; preds = %13
  %22 = load ptr, ptr %4, align 8, !tbaa !10
  %23 = icmp ne ptr %22, null
  br i1 %23, label %24, label %62

24:                                               ; preds = %21
  %25 = load ptr, ptr %3, align 8, !tbaa !23
  %26 = getelementptr inbounds nuw %struct.H5O_msg_class_t, ptr %25, i32 0, i32 8
  %27 = load ptr, ptr %26, align 8, !tbaa !74
  %28 = icmp ne ptr %27, null
  br i1 %28, label %29, label %56

29:                                               ; preds = %24
  %30 = load ptr, ptr %3, align 8, !tbaa !23
  %31 = getelementptr inbounds nuw %struct.H5O_msg_class_t, ptr %30, i32 0, i32 8
  %32 = load ptr, ptr %31, align 8, !tbaa !74
  %33 = load ptr, ptr %4, align 8, !tbaa !10
  %34 = call i32 %32(ptr noundef %33)
  %35 = icmp slt i32 %34, 0
  br i1 %35, label %36, label %55

36:                                               ; preds = %29
  br label %37

37:                                               ; preds = %36
  br label %38

38:                                               ; preds = %37
  br label %39

39:                                               ; preds = %38
  %40 = load i64, ptr @H5E_OHDR_g, align 8, !tbaa !17
  %41 = load i64, ptr @H5E_CANTRELEASE_g, align 8, !tbaa !17
  %42 = call i32 (ptr, ptr, i32, i64, i64, ptr, ...) @H5E_printf_stack(ptr noundef @.str, ptr noundef @__func__.H5O__msg_reset_real, i32 noundef 556, i64 noundef %40, i64 noundef %41, ptr noundef @.str.47)
  br label %43

43:                                               ; preds = %39
  br label %44

44:                                               ; preds = %43
  store i8 1, ptr %6, align 1, !tbaa !13
  %45 = load i8, ptr %6, align 1, !tbaa !13, !range !15, !noundef !16
  %46 = trunc i8 %45 to i1
  %47 = zext i1 %46 to i8
  store i8 %47, ptr %6, align 1, !tbaa !13
  br label %48

48:                                               ; preds = %44
  br label %49

49:                                               ; preds = %48
  br label %50

50:                                               ; preds = %49
  store i32 -1, ptr %5, align 4, !tbaa !8
  br label %63

51:                                               ; No predecessors!
  br label %52

52:                                               ; preds = %51
  br label %53

53:                                               ; preds = %52
  br label %54

54:                                               ; preds = %53
  br label %55

55:                                               ; preds = %54, %29
  br label %61

56:                                               ; preds = %24
  %57 = load ptr, ptr %4, align 8, !tbaa !10
  %58 = load ptr, ptr %3, align 8, !tbaa !23
  %59 = getelementptr inbounds nuw %struct.H5O_msg_class_t, ptr %58, i32 0, i32 2
  %60 = load i64, ptr %59, align 8, !tbaa !75
  call void @llvm.memset.p0.i64(ptr align 1 %57, i8 0, i64 %60, i1 false)
  br label %61

61:                                               ; preds = %56, %55
  br label %62

62:                                               ; preds = %61, %21
  br label %63

63:                                               ; preds = %62, %50
  br label %64

64:                                               ; preds = %63, %13
  %65 = load i32, ptr %5, align 4, !tbaa !8
  call void @llvm.lifetime.end.p0(i64 1, ptr %6) #5
  call void @llvm.lifetime.end.p0(i64 4, ptr %5) #5
  ret i32 %65
}

; Function Attrs: nounwind uwtable
define internal i32 @H5O__copy_mesg(ptr noundef %0, ptr noundef %1, i64 noundef %2, ptr noundef %3, ptr noundef %4, i32 noundef %5, i32 noundef %6) #0 {
  %8 = alloca ptr, align 8
  %9 = alloca ptr, align 8
  %10 = alloca i64, align 8
  %11 = alloca ptr, align 8
  %12 = alloca ptr, align 8
  %13 = alloca i32, align 4
  %14 = alloca i32, align 4
  %15 = alloca ptr, align 8
  %16 = alloca ptr, align 8
  %17 = alloca i8, align 1
  %18 = alloca i32, align 4
  %19 = alloca i8, align 1
  store ptr %0, ptr %8, align 8, !tbaa !22
  store ptr %1, ptr %9, align 8, !tbaa !11
  store i64 %2, ptr %10, align 8, !tbaa !17
  store ptr %3, ptr %11, align 8, !tbaa !23
  store ptr %4, ptr %12, align 8, !tbaa !10
  store i32 %5, ptr %13, align 4, !tbaa !8
  store i32 %6, ptr %14, align 4, !tbaa !8
  call void @llvm.lifetime.start.p0(i64 8, ptr %15) #5
  store ptr null, ptr %15, align 8, !tbaa !45
  call void @llvm.lifetime.start.p0(i64 8, ptr %16) #5
  %20 = load ptr, ptr %9, align 8, !tbaa !11
  %21 = getelementptr inbounds nuw %struct.H5O_t, ptr %20, i32 0, i32 17
  %22 = load ptr, ptr %21, align 8, !tbaa !34
  %23 = load i64, ptr %10, align 8, !tbaa !17
  %24 = getelementptr inbounds nuw %struct.H5O_mesg_t, ptr %22, i64 %23
  store ptr %24, ptr %16, align 8, !tbaa !47
  call void @llvm.lifetime.start.p0(i64 1, ptr %17) #5
  store i8 0, ptr %17, align 1, !tbaa !13
  call void @llvm.lifetime.start.p0(i64 4, ptr %18) #5
  store i32 0, ptr %18, align 4, !tbaa !8
  call void @llvm.lifetime.start.p0(i64 1, ptr %19) #5
  store i8 0, ptr %19, align 1, !tbaa !13
  %25 = load i8, ptr @H5O_init_g, align 1, !tbaa !13, !range !15, !noundef !16
  %26 = trunc i8 %25 to i1
  br i1 %26, label %31, label %27

27:                                               ; preds = %7
  %28 = load i8, ptr @H5_libterm_g, align 1, !tbaa !13, !range !15, !noundef !16
  %29 = trunc i8 %28 to i1
  %30 = xor i1 %29, true
  br label %31

31:                                               ; preds = %27, %7
  %32 = phi i1 [ true, %7 ], [ %30, %27 ]
  %33 = xor i1 %32, true
  %34 = xor i1 %33, true
  %35 = zext i1 %34 to i32
  %36 = sext i32 %35 to i64
  %37 = call i64 @llvm.expect.i64(i64 %36, i64 1)
  %38 = icmp ne i64 %37, 0
  br i1 %38, label %39, label %191

39:                                               ; preds = %31
  %40 = load ptr, ptr %8, align 8, !tbaa !22
  %41 = load ptr, ptr %9, align 8, !tbaa !11
  %42 = load ptr, ptr %16, align 8, !tbaa !47
  %43 = getelementptr inbounds nuw %struct.H5O_mesg_t, ptr %42, i32 0, i32 4
  %44 = load i32, ptr %43, align 8, !tbaa !48
  %45 = call ptr @H5O__chunk_protect(ptr noundef %40, ptr noundef %41, i32 noundef %44)
  store ptr %45, ptr %15, align 8, !tbaa !45
  %46 = icmp eq ptr null, %45
  br i1 %46, label %47, label %66

47:                                               ; preds = %39
  br label %48

48:                                               ; preds = %47
  br label %49

49:                                               ; preds = %48
  br label %50

50:                                               ; preds = %49
  %51 = load i64, ptr @H5E_OHDR_g, align 8, !tbaa !17
  %52 = load i64, ptr @H5E_CANTPROTECT_g, align 8, !tbaa !17
  %53 = call i32 (ptr, ptr, i32, i64, i64, ptr, ...) @H5E_printf_stack(ptr noundef @.str, ptr noundef @__func__.H5O__copy_mesg, i32 noundef 1776, i64 noundef %51, i64 noundef %52, ptr noundef @.str.50)
  br label %54

54:                                               ; preds = %50
  br label %55

55:                                               ; preds = %54
  store i8 1, ptr %19, align 1, !tbaa !13
  %56 = load i8, ptr %19, align 1, !tbaa !13, !range !15, !noundef !16
  %57 = trunc i8 %56 to i1
  %58 = zext i1 %57 to i8
  store i8 %58, ptr %19, align 1, !tbaa !13
  br label %59

59:                                               ; preds = %55
  br label %60

60:                                               ; preds = %59
  br label %61

61:                                               ; preds = %60
  store i32 -1, ptr %18, align 4, !tbaa !8
  br label %164

62:                                               ; No predecessors!
  br label %63

63:                                               ; preds = %62
  br label %64

64:                                               ; preds = %63
  br label %65

65:                                               ; preds = %64
  br label %66

66:                                               ; preds = %65, %39
  %67 = load ptr, ptr %11, align 8, !tbaa !23
  %68 = load ptr, ptr %16, align 8, !tbaa !47
  %69 = getelementptr inbounds nuw %struct.H5O_mesg_t, ptr %68, i32 0, i32 5
  %70 = load ptr, ptr %69, align 8, !tbaa !50
  %71 = call i32 @H5O__msg_reset_real(ptr noundef %67, ptr noundef %70)
  %72 = load ptr, ptr %11, align 8, !tbaa !23
  %73 = getelementptr inbounds nuw %struct.H5O_msg_class_t, ptr %72, i32 0, i32 6
  %74 = load ptr, ptr %73, align 8, !tbaa !51
  %75 = load ptr, ptr %12, align 8, !tbaa !10
  %76 = load ptr, ptr %16, align 8, !tbaa !47
  %77 = getelementptr inbounds nuw %struct.H5O_mesg_t, ptr %76, i32 0, i32 5
  %78 = load ptr, ptr %77, align 8, !tbaa !50
  %79 = call ptr %74(ptr noundef %75, ptr noundef %78)
  %80 = load ptr, ptr %16, align 8, !tbaa !47
  %81 = getelementptr inbounds nuw %struct.H5O_mesg_t, ptr %80, i32 0, i32 5
  store ptr %79, ptr %81, align 8, !tbaa !50
  %82 = icmp eq ptr null, %79
  br i1 %82, label %83, label %102

83:                                               ; preds = %66
  br label %84

84:                                               ; preds = %83
  br label %85

85:                                               ; preds = %84
  br label %86

86:                                               ; preds = %85
  %87 = load i64, ptr @H5E_OHDR_g, align 8, !tbaa !17
  %88 = load i64, ptr @H5E_CANTINIT_g, align 8, !tbaa !17
  %89 = call i32 (ptr, ptr, i32, i64, i64, ptr, ...) @H5E_printf_stack(ptr noundef @.str, ptr noundef @__func__.H5O__copy_mesg, i32 noundef 1783, i64 noundef %87, i64 noundef %88, ptr noundef @.str.51)
  br label %90

90:                                               ; preds = %86
  br label %91

91:                                               ; preds = %90
  store i8 1, ptr %19, align 1, !tbaa !13
  %92 = load i8, ptr %19, align 1, !tbaa !13, !range !15, !noundef !16
  %93 = trunc i8 %92 to i1
  %94 = zext i1 %93 to i8
  store i8 %94, ptr %19, align 1, !tbaa !13
  br label %95

95:                                               ; preds = %91
  br label %96

96:                                               ; preds = %95
  br label %97

97:                                               ; preds = %96
  store i32 -1, ptr %18, align 4, !tbaa !8
  br label %164

98:                                               ; No predecessors!
  br label %99

99:                                               ; preds = %98
  br label %100

100:                                              ; preds = %99
  br label %101

101:                                              ; preds = %100
  br label %102

102:                                              ; preds = %101, %66
  %103 = load i32, ptr %13, align 4, !tbaa !8
  %104 = trunc i32 %103 to i8
  %105 = load ptr, ptr %16, align 8, !tbaa !47
  %106 = getelementptr inbounds nuw %struct.H5O_mesg_t, ptr %105, i32 0, i32 2
  store i8 %104, ptr %106, align 1, !tbaa !52
  %107 = load ptr, ptr %16, align 8, !tbaa !47
  %108 = getelementptr inbounds nuw %struct.H5O_mesg_t, ptr %107, i32 0, i32 1
  store i8 1, ptr %108, align 8, !tbaa !53
  store i8 1, ptr %17, align 1, !tbaa !13
  %109 = load ptr, ptr %8, align 8, !tbaa !22
  %110 = load ptr, ptr %15, align 8, !tbaa !45
  %111 = load i8, ptr %17, align 1, !tbaa !13, !range !15, !noundef !16
  %112 = trunc i8 %111 to i1
  %113 = call i32 @H5O__chunk_unprotect(ptr noundef %109, ptr noundef %110, i1 noundef zeroext %112)
  %114 = icmp slt i32 %113, 0
  br i1 %114, label %115, label %134

115:                                              ; preds = %102
  br label %116

116:                                              ; preds = %115
  br label %117

117:                                              ; preds = %116
  br label %118

118:                                              ; preds = %117
  %119 = load i64, ptr @H5E_OHDR_g, align 8, !tbaa !17
  %120 = load i64, ptr @H5E_CANTUNPROTECT_g, align 8, !tbaa !17
  %121 = call i32 (ptr, ptr, i32, i64, i64, ptr, ...) @H5E_printf_stack(ptr noundef @.str, ptr noundef @__func__.H5O__copy_mesg, i32 noundef 1794, i64 noundef %119, i64 noundef %120, ptr noundef @.str.52)
  br label %122

122:                                              ; preds = %118
  br label %123

123:                                              ; preds = %122
  store i8 1, ptr %19, align 1, !tbaa !13
  %124 = load i8, ptr %19, align 1, !tbaa !13, !range !15, !noundef !16
  %125 = trunc i8 %124 to i1
  %126 = zext i1 %125 to i8
  store i8 %126, ptr %19, align 1, !tbaa !13
  br label %127

127:                                              ; preds = %123
  br label %128

128:                                              ; preds = %127
  br label %129

129:                                              ; preds = %128
  store i32 -1, ptr %18, align 4, !tbaa !8
  br label %164

130:                                              ; No predecessors!
  br label %131

131:                                              ; preds = %130
  br label %132

132:                                              ; preds = %131
  br label %133

133:                                              ; preds = %132
  br label %134

134:                                              ; preds = %133, %102
  store ptr null, ptr %15, align 8, !tbaa !45
  %135 = load i32, ptr %14, align 4, !tbaa !8
  %136 = and i32 %135, 1
  %137 = icmp ne i32 %136, 0
  br i1 %137, label %138, label %163

138:                                              ; preds = %134
  %139 = load ptr, ptr %8, align 8, !tbaa !22
  %140 = load ptr, ptr %9, align 8, !tbaa !11
  %141 = call i32 @H5O_touch_oh(ptr noundef %139, ptr noundef %140, i1 noundef zeroext false)
  %142 = icmp slt i32 %141, 0
  br i1 %142, label %143, label %162

143:                                              ; preds = %138
  br label %144

144:                                              ; preds = %143
  br label %145

145:                                              ; preds = %144
  br label %146

146:                                              ; preds = %145
  %147 = load i64, ptr @H5E_OHDR_g, align 8, !tbaa !17
  %148 = load i64, ptr @H5E_CANTUPDATE_g, align 8, !tbaa !17
  %149 = call i32 (ptr, ptr, i32, i64, i64, ptr, ...) @H5E_printf_stack(ptr noundef @.str, ptr noundef @__func__.H5O__copy_mesg, i32 noundef 1800, i64 noundef %147, i64 noundef %148, ptr noundef @.str.30)
  br label %150

150:                                              ; preds = %146
  br label %151

151:                                              ; preds = %150
  store i8 1, ptr %19, align 1, !tbaa !13
  %152 = load i8, ptr %19, align 1, !tbaa !13, !range !15, !noundef !16
  %153 = trunc i8 %152 to i1
  %154 = zext i1 %153 to i8
  store i8 %154, ptr %19, align 1, !tbaa !13
  br label %155

155:                                              ; preds = %151
  br label %156

156:                                              ; preds = %155
  br label %157

157:                                              ; preds = %156
  store i32 -1, ptr %18, align 4, !tbaa !8
  br label %164

158:                                              ; No predecessors!
  br label %159

159:                                              ; preds = %158
  br label %160

160:                                              ; preds = %159
  br label %161

161:                                              ; preds = %160
  br label %162

162:                                              ; preds = %161, %138
  br label %163

163:                                              ; preds = %162, %134
  br label %164

164:                                              ; preds = %163, %157, %129, %97, %61
  %165 = load ptr, ptr %15, align 8, !tbaa !45
  %166 = icmp ne ptr %165, null
  br i1 %166, label %167, label %190

167:                                              ; preds = %164
  %168 = load ptr, ptr %8, align 8, !tbaa !22
  %169 = load ptr, ptr %15, align 8, !tbaa !45
  %170 = load i8, ptr %17, align 1, !tbaa !13, !range !15, !noundef !16
  %171 = trunc i8 %170 to i1
  %172 = call i32 @H5O__chunk_unprotect(ptr noundef %168, ptr noundef %169, i1 noundef zeroext %171)
  %173 = icmp slt i32 %172, 0
  br i1 %173, label %174, label %190

174:                                              ; preds = %167
  br label %175

175:                                              ; preds = %174
  br label %176

176:                                              ; preds = %175
  br label %177

177:                                              ; preds = %176
  %178 = load i64, ptr @H5E_OHDR_g, align 8, !tbaa !17
  %179 = load i64, ptr @H5E_CANTUNPROTECT_g, align 8, !tbaa !17
  %180 = call i32 (ptr, ptr, i32, i64, i64, ptr, ...) @H5E_printf_stack(ptr noundef @.str, ptr noundef @__func__.H5O__copy_mesg, i32 noundef 1805, i64 noundef %178, i64 noundef %179, ptr noundef @.str.52)
  br label %181

181:                                              ; preds = %177
  br label %182

182:                                              ; preds = %181
  store i8 1, ptr %19, align 1, !tbaa !13
  %183 = load i8, ptr %19, align 1, !tbaa !13, !range !15, !noundef !16
  %184 = trunc i8 %183 to i1
  %185 = zext i1 %184 to i8
  store i8 %185, ptr %19, align 1, !tbaa !13
  br label %186

186:                                              ; preds = %182
  br label %187

187:                                              ; preds = %186
  store i32 -1, ptr %18, align 4, !tbaa !8
  br label %188

188:                                              ; preds = %187
  br label %189

189:                                              ; preds = %188
  br label %190

190:                                              ; preds = %189, %167, %164
  br label %191

191:                                              ; preds = %190, %31
  %192 = load i32, ptr %18, align 4, !tbaa !8
  call void @llvm.lifetime.end.p0(i64 1, ptr %19) #5
  call void @llvm.lifetime.end.p0(i64 4, ptr %18) #5
  call void @llvm.lifetime.end.p0(i64 1, ptr %17) #5
  call void @llvm.lifetime.end.p0(i64 8, ptr %16) #5
  call void @llvm.lifetime.end.p0(i64 8, ptr %15) #5
  ret i32 %192
}