; Function Attrs: nounwind uwtable
define internal fastcc range(i32 -1, 1) i32 @H5O__copy_mesg(ptr noundef %0, ptr noundef %1, i64 noundef %2, ptr noundef readonly captures(none) %3, ptr noundef %4, i32 noundef %5, i32 noundef %6) unnamed_addr #0 {
  %8 = getelementptr inbounds nuw i8, ptr %1, i64 352
  %9 = load ptr, ptr %8, align 8, !tbaa !28
  %10 = getelementptr inbounds nuw %struct.H5O_mesg_t, ptr %9, i64 %2
  %11 = load i8, ptr @H5O_init_g, align 1, !tbaa !3, !range !7, !noundef !8
  %12 = trunc nuw i8 %11 to i1
  %13 = load i8, ptr @H5_libterm_g, align 1, !range !7
  %14 = trunc nuw i8 %13 to i1
  %15 = xor i1 %14, true
  %16 = select i1 %12, i1 true, i1 %15
  br i1 %16, label %17, label %.thread, !prof !9

17:                                               ; preds = %7
  %18 = getelementptr inbounds nuw i8, ptr %10, i64 16
  %19 = load i32, ptr %18, align 8, !tbaa !40
  %20 = tail call ptr @H5O__chunk_protect(ptr noundef %0, ptr noundef nonnull %1, i32 noundef %19) #7
  %21 = icmp eq ptr %20, null
  br i1 %21, label %22, label %26

22:                                               ; preds = %17
  %23 = load i64, ptr @H5E_OHDR_g, align 8, !tbaa !10
  %24 = load i64, ptr @H5E_CANTPROTECT_g, align 8, !tbaa !10
  %25 = tail call i32 (ptr, ptr, i32, i64, i64, ptr, ...) @H5E_printf_stack(ptr noundef nonnull @.str, ptr noundef nonnull @__func__.H5O__copy_mesg, i32 noundef 1776, i64 noundef %23, i64 noundef %24, ptr noundef nonnull @.str.50) #7
  br label %.thread

26:                                               ; preds = %17
  %27 = getelementptr inbounds nuw i8, ptr %10, i64 24
  %28 = load ptr, ptr %27, align 8, !tbaa !42
  %29 = load i8, ptr @H5O_init_g, align 1, !tbaa !3, !range !7, !noundef !8
  %30 = trunc nuw i8 %29 to i1
  %31 = load i8, ptr @H5_libterm_g, align 1, !range !7
  %32 = trunc nuw i8 %31 to i1
  %33 = xor i1 %32, true
  %34 = select i1 %30, i1 true, i1 %33
  %35 = icmp ne ptr %28, null
  %or.cond.i = and i1 %35, %34
  br i1 %or.cond.i, label %36, label %H5O__msg_reset_real.exit, !prof !43

36:                                               ; preds = %26
  %37 = getelementptr inbounds nuw i8, ptr %3, i64 64
  %38 = load ptr, ptr %37, align 8, !tbaa !44
  %.not.i = icmp eq ptr %38, null
  br i1 %.not.i, label %46, label %39

39:                                               ; preds = %36
  %40 = tail call i32 %38(ptr noundef nonnull %28) #7
  %41 = icmp slt i32 %40, 0
  br i1 %41, label %42, label %H5O__msg_reset_real.exit

42:                                               ; preds = %39
  %43 = load i64, ptr @H5E_OHDR_g, align 8, !tbaa !10
  %44 = load i64, ptr @H5E_CANTRELEASE_g, align 8, !tbaa !10
  %45 = tail call i32 (ptr, ptr, i32, i64, i64, ptr, ...) @H5E_printf_stack(ptr noundef nonnull @.str, ptr noundef nonnull @__func__.H5O__msg_reset_real, i32 noundef 556, i64 noundef %43, i64 noundef %44, ptr noundef nonnull @.str.47) #7
  br label %H5O__msg_reset_real.exit

46:                                               ; preds = %36
  %47 = getelementptr inbounds nuw i8, ptr %3, i64 16
  %48 = load i64, ptr %47, align 8, !tbaa !45
  tail call void @llvm.memset.p0.i64(ptr nonnull align 1 %28, i8 0, i64 %48, i1 false)
  br label %H5O__msg_reset_real.exit

H5O__msg_reset_real.exit:                         ; preds = %26, %39, %42, %46
  %49 = getelementptr inbounds nuw i8, ptr %3, i64 48
  %50 = load ptr, ptr %49, align 8, !tbaa !46
  %51 = load ptr, ptr %27, align 8, !tbaa !42
  %52 = tail call ptr %50(ptr noundef %4, ptr noundef %51) #7
  store ptr %52, ptr %27, align 8, !tbaa !42
  %53 = icmp ne ptr %52, null
  br i1 %53, label %58, label %54

54:                                               ; preds = %H5O__msg_reset_real.exit
  %55 = load i64, ptr @H5E_OHDR_g, align 8, !tbaa !10
  %56 = load i64, ptr @H5E_CANTINIT_g, align 8, !tbaa !10
  %57 = tail call i32 (ptr, ptr, i32, i64, i64, ptr, ...) @H5E_printf_stack(ptr noundef nonnull @.str, ptr noundef nonnull @__func__.H5O__copy_mesg, i32 noundef 1783, i64 noundef %55, i64 noundef %56, ptr noundef nonnull @.str.51) #7
  br label %77

58:                                               ; preds = %H5O__msg_reset_real.exit
  %59 = trunc i32 %5 to i8
  %60 = getelementptr inbounds nuw i8, ptr %10, i64 9
  store i8 %59, ptr %60, align 1, !tbaa !47
  %61 = getelementptr inbounds nuw i8, ptr %10, i64 8
  store i8 1, ptr %61, align 8, !tbaa !48
  %62 = tail call i32 @H5O__chunk_unprotect(ptr noundef %0, ptr noundef nonnull %20, i1 noundef zeroext true) #7
  %63 = icmp slt i32 %62, 0
  br i1 %63, label %64, label %68

64:                                               ; preds = %58
  %65 = load i64, ptr @H5E_OHDR_g, align 8, !tbaa !10
  %66 = load i64, ptr @H5E_CANTUNPROTECT_g, align 8, !tbaa !10
  %67 = tail call i32 (ptr, ptr, i32, i64, i64, ptr, ...) @H5E_printf_stack(ptr noundef nonnull @.str, ptr noundef nonnull @__func__.H5O__copy_mesg, i32 noundef 1794, i64 noundef %65, i64 noundef %66, ptr noundef nonnull @.str.52) #7
  br label %77

68:                                               ; preds = %58
  %69 = and i32 %6, 1
  %.not = icmp eq i32 %69, 0
  br i1 %.not, label %.thread, label %70

70:                                               ; preds = %68
  %71 = tail call i32 @H5O_touch_oh(ptr noundef %0, ptr noundef nonnull %1, i1 noundef zeroext false) #7
  %72 = icmp slt i32 %71, 0
  br i1 %72, label %73, label %.thread

73:                                               ; preds = %70
  %74 = load i64, ptr @H5E_OHDR_g, align 8, !tbaa !10
  %75 = load i64, ptr @H5E_CANTUPDATE_g, align 8, !tbaa !10
  %76 = tail call i32 (ptr, ptr, i32, i64, i64, ptr, ...) @H5E_printf_stack(ptr noundef nonnull @.str, ptr noundef nonnull @__func__.H5O__copy_mesg, i32 noundef 1800, i64 noundef %74, i64 noundef %75, ptr noundef nonnull @.str.30) #7
  br label %.thread

77:                                               ; preds = %54, %64
  %78 = tail call i32 @H5O__chunk_unprotect(ptr noundef %0, ptr noundef nonnull %20, i1 noundef zeroext %53) #7
  %79 = icmp slt i32 %78, 0
  br i1 %79, label %80, label %.thread

80:                                               ; preds = %77
  %81 = load i64, ptr @H5E_OHDR_g, align 8, !tbaa !10
  %82 = load i64, ptr @H5E_CANTUNPROTECT_g, align 8, !tbaa !10
  %83 = tail call i32 (ptr, ptr, i32, i64, i64, ptr, ...) @H5E_printf_stack(ptr noundef nonnull @.str, ptr noundef nonnull @__func__.H5O__copy_mesg, i32 noundef 1805, i64 noundef %81, i64 noundef %82, ptr noundef nonnull @.str.52) #7
  br label %.thread

.thread:                                          ; preds = %68, %70, %73, %22, %77, %80, %7
  %.0 = phi i32 [ -1, %80 ], [ -1, %77 ], [ 0, %7 ], [ 0, %68 ], [ 0, %70 ], [ -1, %73 ], [ -1, %22 ]
  ret i32 %.0
}